target datalayout = "e-m:e-p270:32:32-p271:32:32-p272:64:64-i64:64-i128:128-f80:128-n8:16:32:64-S128"
target triple = "x86_64-pc-linux-gnu"

%struct._zend_phpdbg_globals = type { [11 x %struct._zend_array], %struct._zend_array, %struct._zend_array, ptr, ptr, %struct.phpdbg_frame_t, i32, ptr, %struct.phpdbg_lexer_data, ptr, %struct.sigaction, i32, i64, %struct.phpdbg_btree, %struct.phpdbg_btree, %struct._zend_array, %struct._zend_array, %struct._zend_array, %struct._zend_array, ptr, ptr, i8, ptr, ptr, ptr, i64, ptr, %struct._zval_struct, i32, i32, i8, i8, ptr, ptr, ptr, %struct._zend_array, ptr, ptr, ptr, [3 x %struct.anon.8], ptr, %struct.anon.9, i64, [2 x ptr], [3 x ptr], ptr, i8, ptr, ptr, [500 x i8], i32, %struct.phpdbg_signal_safe_mem, ptr, i64, ptr, i64 }
%struct.phpdbg_frame_t = type { i32, ptr, ptr }
%struct.phpdbg_lexer_data = type { i32, ptr, ptr, ptr, ptr, i32 }
%struct.sigaction = type { %union.anon.2, %struct.__sigset_t, i32, ptr }
%union.anon.2 = type { ptr }
%struct.__sigset_t = type { [16 x i64] }
%struct.phpdbg_btree = type { i64, i64, i8, ptr }
%struct._zval_struct = type { %union._zend_value, %union.anon.4, %union.anon.7 }
%union._zend_value = type { i64 }
%union.anon.4 = type { i32 }
%union.anon.7 = type { i32 }
%struct._zend_array = type { %struct._zend_refcounted_h, %union.anon.0, i32, %union.anon.1, i32, i32, i32, i32, i64, ptr }
%struct._zend_refcounted_h = type { i32, %union.anon }
%union.anon = type { i32 }
%union.anon.0 = type { i32 }
%union.anon.1 = type { ptr }
%struct.anon.8 = type { i32 }
%struct.anon.9 = type { i8, i32, i32, ptr, i32 }
%struct.phpdbg_signal_safe_mem = type { ptr, i8, ptr, ptr }
%struct._zend_executor_globals = type { %struct._zval_struct, %struct._zval_struct, [32 x ptr], ptr, ptr, %struct._zend_array, %struct._zend_array, ptr, i32, i32, ptr, ptr, ptr, ptr, ptr, ptr, i64, ptr, ptr, i32, i32, i64, i32, i32, i32, i8, i8, %struct.zend_atomic_bool_s, %struct.zend_atomic_bool_s, ptr, i64, ptr, ptr, %struct._zend_array, %struct._zend_array, i32, i8, %struct._zval_struct, %struct._zval_struct, %struct._zend_stack, %struct._zend_stack, %struct._zend_stack, ptr, i32, i32, i64, ptr, ptr, ptr, %struct._zend_objects_store, ptr, ptr, ptr, [3 x %struct._zend_op], ptr, i8, i8, i64, i32, i32, ptr, [16 x %struct._HashTableIterator], ptr, %union._zend_function, %struct._zend_op, %struct._zend_array, i64, %struct.zend_get_gc_buffer, ptr, ptr, ptr, i64, i8, i32, ptr, ptr, i64, %struct._zend_call_stack, i64, i64, [6 x ptr] }
%struct.zend_atomic_bool_s = type { i8 }
%struct._zend_stack = type { i32, i32, i32, ptr }
%struct._zend_objects_store = type { ptr, i32, i32, i32 }
%struct._HashTableIterator = type { ptr, i32, i32 }
%union._zend_function = type { %struct._zend_op_array }
%struct._zend_op_array = type { i8, [3 x i8], i32, ptr, ptr, ptr, i32, i32, ptr, ptr, ptr, ptr, i32, i32, i32, i32, ptr, ptr, ptr, ptr, ptr, i32, i32, ptr, ptr, ptr, i32, i32, i32, i32, ptr, ptr, [6 x ptr] }
%struct._zend_op = type { ptr, %union._znode_op, %union._znode_op, %union._znode_op, i32, i32, i8, i8, i8, i8 }
%union._znode_op = type { i32 }
%struct.zend_get_gc_buffer = type { ptr, ptr, ptr }
%struct._zend_call_stack = type { ptr, i64 }

@phpdbg_globals = external global %struct._zend_phpdbg_globals, align 8
@executor_globals = external global %struct._zend_executor_globals, align 8
@.str.105 = private unnamed_addr constant [32 x i8] c"Execution Context Information\0A\0A\00", align 1
@.str.106 = private unnamed_addr constant [23 x i8] c"Readline   unavailable\00", align 1
@.str.107 = private unnamed_addr constant [14 x i8] c"Exec       %s\00", align 1
@.str.108 = private unnamed_addr constant [5 x i8] c"none\00", align 1
@.str.109 = private unnamed_addr constant [14 x i8] c"Compiled   %s\00", align 1
@.str.110 = private unnamed_addr constant [4 x i8] c"yes\00", align 1
@.str.111 = private unnamed_addr constant [3 x i8] c"no\00", align 1
@.str.112 = private unnamed_addr constant [14 x i8] c"Stepping   %s\00", align 1
@.str.113 = private unnamed_addr constant [3 x i8] c"on\00", align 1
@.str.114 = private unnamed_addr constant [4 x i8] c"off\00", align 1
@.str.115 = private unnamed_addr constant [14 x i8] c"Quietness  %s\00", align 1
@.str.116 = private unnamed_addr constant [14 x i8] c"Opcodes    %d\00", align 1
@.str.117 = private unnamed_addr constant [14 x i8] c"Variables  %d\00", align 1
@.str.118 = private unnamed_addr constant [14 x i8] c"Executing  %s\00", align 1
@.str.119 = private unnamed_addr constant [14 x i8] c"VM Return  %d\00", align 1
@.str.120 = private unnamed_addr constant [14 x i8] c"Classes    %d\00", align 1
@.str.121 = private unnamed_addr constant [14 x i8] c"Functions  %d\00", align 1
@.str.122 = private unnamed_addr constant [14 x i8] c"Constants  %d\00", align 1
@.str.123 = private unnamed_addr constant [14 x i8] c"Included   %d\00", align 1

; Function Attrs: nounwind uwtable
define hidden i32 @phpdbg_do_info(ptr noundef %0) #0 {
  %2 = alloca ptr, align 8
  %3 = alloca ptr, align 8
  %4 = alloca ptr, align 8
  %5 = alloca ptr, align 8
  %6 = alloca ptr, align 8
  store ptr %0, ptr %6, align 8
  %7 = load i32, ptr getelementptr inbounds (%struct._zend_phpdbg_globals, ptr @phpdbg_globals, i32 0, i32 39, i64 1), align 4
  %8 = call i32 (i32, ptr, ...) @phpdbg_out_internal(i32 noundef %7, ptr noundef @.str.105)
  %9 = load i32, ptr getelementptr inbounds (%struct._zend_phpdbg_globals, ptr @phpdbg_globals, i32 0, i32 39, i64 1), align 4
  %10 = call i32 (i32, i32, ptr, ...) @phpdbg_print(i32 noundef 3, i32 noundef %9, ptr noundef @.str.106)
  %11 = load i32, ptr getelementptr inbounds (%struct._zend_phpdbg_globals, ptr @phpdbg_globals, i32 0, i32 39, i64 1), align 4
  %12 = load ptr, ptr getelementptr inbounds (%struct._zend_phpdbg_globals, ptr @phpdbg_globals, i32 0, i32 24), align 8
  %13 = icmp ne ptr %12, null
  br i1 %13, label %14, label %16

14:                                               ; preds = %1
  %15 = load ptr, ptr getelementptr inbounds (%struct._zend_phpdbg_globals, ptr @phpdbg_globals, i32 0, i32 24), align 8
  br label %17

16:                                               ; preds = %1
  br label %17

17:                                               ; preds = %16, %14
  %18 = phi ptr [ %15, %14 ], [ @.str.108, %16 ]
  %19 = call i32 (i32, i32, ptr, ...) @phpdbg_print(i32 noundef 3, i32 noundef %11, ptr noundef @.str.107, ptr noundef %18)
  %20 = load i32, ptr getelementptr inbounds (%struct._zend_phpdbg_globals, ptr @phpdbg_globals, i32 0, i32 39, i64 1), align 4
  %21 = load ptr, ptr getelementptr inbounds (%struct._zend_phpdbg_globals, ptr @phpdbg_globals, i32 0, i32 26), align 8
  %22 = icmp ne ptr %21, null
  %23 = select i1 %22, ptr @.str.110, ptr @.str.111
  %24 = call i32 (i32, i32, ptr, ...) @phpdbg_print(i32 noundef 3, i32 noundef %20, ptr noundef @.str.109, ptr noundef %23)
  %25 = load i32, ptr getelementptr inbounds (%struct._zend_phpdbg_globals, ptr @phpdbg_globals, i32 0, i32 39, i64 1), align 4
  %26 = load i64, ptr getelementptr inbounds (%struct._zend_phpdbg_globals, ptr @phpdbg_globals, i32 0, i32 53), align 8
  %27 = and i64 %26, 8192
  %28 = icmp ne i64 %27, 0
  %29 = select i1 %28, ptr @.str.113, ptr @.str.114
  %30 = call i32 (i32, i32, ptr, ...) @phpdbg_print(i32 noundef 3, i32 noundef %25, ptr noundef @.str.112, ptr noundef %29)
  %31 = load i32, ptr getelementptr inbounds (%struct._zend_phpdbg_globals, ptr @phpdbg_globals, i32 0, i32 39, i64 1), align 4
  %32 = load i64, ptr getelementptr inbounds (%struct._zend_phpdbg_globals, ptr @phpdbg_globals, i32 0, i32 53), align 8
  %33 = and i64 %32, 32768
  %34 = icmp ne i64 %33, 0
  %35 = select i1 %34, ptr @.str.113, ptr @.str.114
  %36 = call i32 (i32, i32, ptr, ...) @phpdbg_print(i32 noundef 3, i32 noundef %31, ptr noundef @.str.115, ptr noundef %35)
  %37 = load ptr, ptr getelementptr inbounds (%struct._zend_phpdbg_globals, ptr @phpdbg_globals, i32 0, i32 26), align 8
  %38 = icmp ne ptr %37, null
  br i1 %38, label %39, label %59

39:                                               ; preds = %17
  %40 = load i32, ptr getelementptr inbounds (%struct._zend_phpdbg_globals, ptr @phpdbg_globals, i32 0, i32 39, i64 1), align 4
  %41 = load ptr, ptr getelementptr inbounds (%struct._zend_phpdbg_globals, ptr @phpdbg_globals, i32 0, i32 26), align 8
  %42 = getelementptr inbounds %struct._zend_op_array, ptr %41, i32 0, i32 15
  %43 = load i32, ptr %42, align 4
  %44 = call i32 (i32, i32, ptr, ...) @phpdbg_print(i32 noundef 3, i32 noundef %40, ptr noundef @.str.116, i32 noundef %43)
  %45 = load i32, ptr getelementptr inbounds (%struct._zend_phpdbg_globals, ptr @phpdbg_globals, i32 0, i32 39, i64 1), align 4
  %46 = load ptr, ptr getelementptr inbounds (%struct._zend_phpdbg_globals, ptr @phpdbg_globals, i32 0, i32 26), align 8
  %47 = getelementptr inbounds %struct._zend_op_array, ptr %46, i32 0, i32 14
  %48 = load i32, ptr %47, align 8
  %49 = icmp ne i32 %48, 0
  br i1 %49, label %50, label %55

50:                                               ; preds = %39
  %51 = load ptr, ptr getelementptr inbounds (%struct._zend_phpdbg_globals, ptr @phpdbg_globals, i32 0, i32 26), align 8
  %52 = getelementptr inbounds %struct._zend_op_array, ptr %51, i32 0, i32 14
  %53 = load i32, ptr %52, align 8
  %54 = sub nsw i32 %53, 1
  br label %56

55:                                               ; preds = %39
  br label %56

56:                                               ; preds = %55, %50
  %57 = phi i32 [ %54, %50 ], [ 0, %55 ]
  %58 = call i32 (i32, i32, ptr, ...) @phpdbg_print(i32 noundef 3, i32 noundef %45, ptr noundef @.str.117, i32 noundef %57)
  br label %59

59:                                               ; preds = %56, %17
  %60 = load i32, ptr getelementptr inbounds (%struct._zend_phpdbg_globals, ptr @phpdbg_globals, i32 0, i32 39, i64 1), align 4
  %61 = load i8, ptr getelementptr inbounds (%struct._zend_phpdbg_globals, ptr @phpdbg_globals, i32 0, i32 30), align 8
  %62 = trunc i8 %61 to i1
  %63 = select i1 %62, ptr @.str.110, ptr @.str.111
  %64 = call i32 (i32, i32, ptr, ...) @phpdbg_print(i32 noundef 3, i32 noundef %60, ptr noundef @.str.118, ptr noundef %63)
  %65 = load i8, ptr getelementptr inbounds (%struct._zend_phpdbg_globals, ptr @phpdbg_globals, i32 0, i32 30), align 8
  %66 = trunc i8 %65 to i1
  br i1 %66, label %67, label %71

67:                                               ; preds = %59
  %68 = load i32, ptr getelementptr inbounds (%struct._zend_phpdbg_globals, ptr @phpdbg_globals, i32 0, i32 39, i64 1), align 4
  %69 = load i32, ptr getelementptr inbounds (%struct._zend_phpdbg_globals, ptr @phpdbg_globals, i32 0, i32 29), align 4
  %70 = call i32 (i32, i32, ptr, ...) @phpdbg_print(i32 noundef 3, i32 noundef %68, ptr noundef @.str.119, i32 noundef %69)
  br label %71

71:                                               ; preds = %67, %59
  %72 = load i32, ptr getelementptr inbounds (%struct._zend_phpdbg_globals, ptr @phpdbg_globals, i32 0, i32 39, i64 1), align 4
  %73 = load ptr, ptr getelementptr inbounds (%struct._zend_executor_globals, ptr @executor_globals, i32 0, i32 11), align 8
  store ptr %73, ptr %2, align 8
  %74 = load ptr, ptr %2, align 8
  %75 = getelementptr inbounds %struct._zend_array, ptr %74, i32 0, i32 5
  %76 = load i32, ptr %75, align 4
  %77 = call i32 (i32, i32, ptr, ...) @phpdbg_print(i32 noundef 3, i32 noundef %72, ptr noundef @.str.120, i32 noundef %76)
  %78 = load i32, ptr getelementptr inbounds (%struct._zend_phpdbg_globals, ptr @phpdbg_globals, i32 0, i32 39, i64 1), align 4
  %79 = load ptr, ptr getelementptr inbounds (%struct._zend_executor_globals, ptr @executor_globals, i32 0, i32 10), align 8
  store ptr %79, ptr %3, align 8
  %80 = load ptr, ptr %3, align 8
  %81 = getelementptr inbounds %struct._zend_array, ptr %80, i32 0, i32 5
  %82 = load i32, ptr %81, align 4
  %83 = call i32 (i32, i32, ptr, ...) @phpdbg_print(i32 noundef 3, i32 noundef %78, ptr noundef @.str.121, i32 noundef %82)
  %84 = load i32, ptr getelementptr inbounds (%struct._zend_phpdbg_globals, ptr @phpdbg_globals, i32 0, i32 39, i64 1), align 4
  %85 = load ptr, ptr getelementptr inbounds (%struct._zend_executor_globals, ptr @executor_globals, i32 0, i32 12), align 8
  store ptr %85, ptr %4, align 8
  %86 = load ptr, ptr %4, align 8
  %87 = getelementptr inbounds %struct._zend_array, ptr %86, i32 0, i32 5
  %88 = load i32, ptr %87, align 4
  %89 = call i32 (i32, i32, ptr, ...) @phpdbg_print(i32 noundef 3, i32 noundef %84, ptr noundef @.str.122, i32 noundef %88)
  %90 = load i32, ptr getelementptr inbounds (%struct._zend_phpdbg_globals, ptr @phpdbg_globals, i32 0, i32 39, i64 1), align 4
  store ptr getelementptr inbounds (%struct._zend_executor_globals, ptr @executor_globals, i32 0, i32 6), ptr %5, align 8
  %91 = load ptr, ptr %5, align 8
  %92 = getelementptr inbounds %struct._zend_array, ptr %91, i32 0, i32 5
  %93 = load i32, ptr %92, align 4
  %94 = call i32 (i32, i32, ptr, ...) @phpdbg_print(i32 noundef 3, i32 noundef %90, ptr noundef @.str.123, i32 noundef %93)
  ret i32 0
}