; Function Attrs: nounwind uwtable
define hidden noundef i32 @phpdbg_do_info(ptr nocapture readnone %0) #0 {
  %2 = load i32, ptr getelementptr inbounds (%struct._zend_phpdbg_globals, ptr @phpdbg_globals, i64 0, i32 39, i64 1), align 4
  %3 = tail call i32 (i32, ptr, ...) @phpdbg_out_internal(i32 noundef %2, ptr noundef nonnull @.str.105) #24
  %4 = load i32, ptr getelementptr inbounds (%struct._zend_phpdbg_globals, ptr @phpdbg_globals, i64 0, i32 39, i64 1), align 4
  %5 = tail call i32 (i32, i32, ptr, ...) @phpdbg_print(i32 noundef 3, i32 noundef %4, ptr noundef nonnull @.str.106) #24
  %6 = load i32, ptr getelementptr inbounds (%struct._zend_phpdbg_globals, ptr @phpdbg_globals, i64 0, i32 39, i64 1), align 4
  %7 = load ptr, ptr getelementptr inbounds (%struct._zend_phpdbg_globals, ptr @phpdbg_globals, i64 0, i32 24), align 8
  %.not = icmp eq ptr %7, null
  %8 = select i1 %.not, ptr @.str.108, ptr %7
  %9 = tail call i32 (i32, i32, ptr, ...) @phpdbg_print(i32 noundef 3, i32 noundef %6, ptr noundef nonnull @.str.107, ptr noundef nonnull %8) #24
  %10 = load i32, ptr getelementptr inbounds (%struct._zend_phpdbg_globals, ptr @phpdbg_globals, i64 0, i32 39, i64 1), align 4
  %11 = load ptr, ptr getelementptr inbounds (%struct._zend_phpdbg_globals, ptr @phpdbg_globals, i64 0, i32 26), align 8
  %.not5 = icmp eq ptr %11, null
  %12 = select i1 %.not5, ptr @.str.111, ptr @.str.110
  %13 = tail call i32 (i32, i32, ptr, ...) @phpdbg_print(i32 noundef 3, i32 noundef %10, ptr noundef nonnull @.str.109, ptr noundef nonnull %12) #24
  %14 = load i32, ptr getelementptr inbounds (%struct._zend_phpdbg_globals, ptr @phpdbg_globals, i64 0, i32 39, i64 1), align 4
  %15 = load i64, ptr getelementptr inbounds (%struct._zend_phpdbg_globals, ptr @phpdbg_globals, i64 0, i32 53), align 8
  %16 = and i64 %15, 8192
  %.not6 = icmp eq i64 %16, 0
  %17 = select i1 %.not6, ptr @.str.114, ptr @.str.113
  %18 = tail call i32 (i32, i32, ptr, ...) @phpdbg_print(i32 noundef 3, i32 noundef %14, ptr noundef nonnull @.str.112, ptr noundef nonnull %17) #24
  %19 = load i32, ptr getelementptr inbounds (%struct._zend_phpdbg_globals, ptr @phpdbg_globals, i64 0, i32 39, i64 1), align 4
  %20 = load i64, ptr getelementptr inbounds (%struct._zend_phpdbg_globals, ptr @phpdbg_globals, i64 0, i32 53), align 8
  %21 = and i64 %20, 32768
  %.not7 = icmp eq i64 %21, 0
  %22 = select i1 %.not7, ptr @.str.114, ptr @.str.113
  %23 = tail call i32 (i32, i32, ptr, ...) @phpdbg_print(i32 noundef 3, i32 noundef %19, ptr noundef nonnull @.str.115, ptr noundef nonnull %22) #24
  %24 = load ptr, ptr getelementptr inbounds (%struct._zend_phpdbg_globals, ptr @phpdbg_globals, i64 0, i32 26), align 8
  %.not8 = icmp eq ptr %24, null
  br i1 %.not8, label %35, label %25

25:                                               ; preds = %1
  %26 = load i32, ptr getelementptr inbounds (%struct._zend_phpdbg_globals, ptr @phpdbg_globals, i64 0, i32 39, i64 1), align 4
  %27 = getelementptr inbounds i8, ptr %24, i64 84
  %28 = load i32, ptr %27, align 4
  %29 = tail call i32 (i32, i32, ptr, ...) @phpdbg_print(i32 noundef 3, i32 noundef %26, ptr noundef nonnull @.str.116, i32 noundef %28) #24
  %30 = load i32, ptr getelementptr inbounds (%struct._zend_phpdbg_globals, ptr @phpdbg_globals, i64 0, i32 39, i64 1), align 4
  %31 = load ptr, ptr getelementptr inbounds (%struct._zend_phpdbg_globals, ptr @phpdbg_globals, i64 0, i32 26), align 8
  %32 = getelementptr inbounds i8, ptr %31, i64 80
  %33 = load i32, ptr %32, align 8
  %spec.select = tail call i32 @llvm.usub.sat.i32(i32 %33, i32 1)
  %34 = tail call i32 (i32, i32, ptr, ...) @phpdbg_print(i32 noundef 3, i32 noundef %30, ptr noundef nonnull @.str.117, i32 noundef %spec.select) #24
  br label %35

35:                                               ; preds = %25, %1
  %36 = load i32, ptr getelementptr inbounds (%struct._zend_phpdbg_globals, ptr @phpdbg_globals, i64 0, i32 39, i64 1), align 4
  %37 = load i8, ptr getelementptr inbounds (%struct._zend_phpdbg_globals, ptr @phpdbg_globals, i64 0, i32 30), align 8
  %38 = and i8 %37, 1
  %.not10 = icmp eq i8 %38, 0
  %39 = select i1 %.not10, ptr @.str.111, ptr @.str.110
  %40 = tail call i32 (i32, i32, ptr, ...) @phpdbg_print(i32 noundef 3, i32 noundef %36, ptr noundef nonnull @.str.118, ptr noundef nonnull %39) #24
  %41 = load i8, ptr getelementptr inbounds (%struct._zend_phpdbg_globals, ptr @phpdbg_globals, i64 0, i32 30), align 8
  %42 = and i8 %41, 1
  %.not11 = icmp eq i8 %42, 0
  br i1 %.not11, label %47, label %43

43:                                               ; preds = %35
  %44 = load i32, ptr getelementptr inbounds (%struct._zend_phpdbg_globals, ptr @phpdbg_globals, i64 0, i32 39, i64 1), align 4
  %45 = load i32, ptr getelementptr inbounds (%struct._zend_phpdbg_globals, ptr @phpdbg_globals, i64 0, i32 29), align 4
  %46 = tail call i32 (i32, i32, ptr, ...) @phpdbg_print(i32 noundef 3, i32 noundef %44, ptr noundef nonnull @.str.119, i32 noundef %45) #24
  br label %47

47:                                               ; preds = %43, %35
  %48 = load i32, ptr getelementptr inbounds (%struct._zend_phpdbg_globals, ptr @phpdbg_globals, i64 0, i32 39, i64 1), align 4
  %49 = load ptr, ptr getelementptr inbounds (%struct._zend_executor_globals, ptr @executor_globals, i64 0, i32 11), align 8
  %50 = getelementptr inbounds i8, ptr %49, i64 28
  %51 = load i32, ptr %50, align 4
  %52 = tail call i32 (i32, i32, ptr, ...) @phpdbg_print(i32 noundef 3, i32 noundef %48, ptr noundef nonnull @.str.120, i32 noundef %51) #24
  %53 = load i32, ptr getelementptr inbounds (%struct._zend_phpdbg_globals, ptr @phpdbg_globals, i64 0, i32 39, i64 1), align 4
  %54 = load ptr, ptr getelementptr inbounds (%struct._zend_executor_globals, ptr @executor_globals, i64 0, i32 10), align 8
  %55 = getelementptr inbounds i8, ptr %54, i64 28
  %56 = load i32, ptr %55, align 4
  %57 = tail call i32 (i32, i32, ptr, ...) @phpdbg_print(i32 noundef 3, i32 noundef %53, ptr noundef nonnull @.str.121, i32 noundef %56) #24
  %58 = load i32, ptr getelementptr inbounds (%struct._zend_phpdbg_globals, ptr @phpdbg_globals, i64 0, i32 39, i64 1), align 4
  %59 = load ptr, ptr getelementptr inbounds (%struct._zend_executor_globals, ptr @executor_globals, i64 0, i32 12), align 8
  %60 = getelementptr inbounds i8, ptr %59, i64 28
  %61 = load i32, ptr %60, align 4
  %62 = tail call i32 (i32, i32, ptr, ...) @phpdbg_print(i32 noundef 3, i32 noundef %58, ptr noundef nonnull @.str.122, i32 noundef %61) #24
  %63 = load i32, ptr getelementptr inbounds (%struct._zend_phpdbg_globals, ptr @phpdbg_globals, i64 0, i32 39, i64 1), align 4
  %64 = load i32, ptr getelementptr inbounds (%struct._zend_executor_globals, ptr @executor_globals, i64 0, i32 6, i32 5), align 4
  %65 = tail call i32 (i32, i32, ptr, ...) @phpdbg_print(i32 noundef 3, i32 noundef %63, ptr noundef nonnull @.str.123, i32 noundef %64) #24
  ret i32 0
}